target datalayout = "e-m:e-p270:32:32-p271:32:32-p272:64:64-i64:64-i128:128-f80:128-n8:16:32:64-S128"
target triple = "x86_64-pc-linux-gnu"

%struct._MRIStepInnerStepper = type { ptr, ptr, ptr, ptr, i32, i32, i32, double, double, ptr, ptr, i64, i64, i64, i64 }

; Function Attrs: nounwind uwtable
define i32 @mriStepInnerStepper_Resize(ptr noundef %0, ptr noundef %1, ptr noundef %2, i64 noundef %3, i64 noundef %4, ptr noundef %5) #0 {
  %7 = alloca i32, align 4
  %8 = alloca ptr, align 8
  %9 = alloca ptr, align 8
  %10 = alloca ptr, align 8
  %11 = alloca i64, align 8
  %12 = alloca i64, align 8
  %13 = alloca ptr, align 8
  %14 = alloca i32, align 4
  %15 = alloca i32, align 4
  store ptr %0, ptr %8, align 8, !tbaa !11
  store ptr %1, ptr %9, align 8, !tbaa !3
  store ptr %2, ptr %10, align 8, !tbaa !3
  store i64 %3, ptr %11, align 8, !tbaa !198
  store i64 %4, ptr %12, align 8, !tbaa !198
  store ptr %5, ptr %13, align 8, !tbaa !9
  call void @llvm.lifetime.start.p0(i64 4, ptr %14) #8
  %16 = load ptr, ptr %8, align 8, !tbaa !11
  %17 = icmp eq ptr %16, null
  br i1 %17, label %18, label %19

18:                                               ; preds = %6
  store i32 -22, ptr %7, align 4
  store i32 1, ptr %15, align 4
  br label %39

19:                                               ; preds = %6
  %20 = load ptr, ptr %9, align 8, !tbaa !3
  %21 = load ptr, ptr %10, align 8, !tbaa !3
  %22 = load ptr, ptr %8, align 8, !tbaa !11
  %23 = getelementptr inbounds nuw %struct._MRIStepInnerStepper, ptr %22, i32 0, i32 5
  %24 = load i32, ptr %23, align 4, !tbaa !227
  %25 = load ptr, ptr %13, align 8, !tbaa !9
  %26 = load ptr, ptr %8, align 8, !tbaa !11
  %27 = getelementptr inbounds nuw %struct._MRIStepInnerStepper, ptr %26, i32 0, i32 3
  %28 = load i64, ptr %11, align 8, !tbaa !198
  %29 = load ptr, ptr %8, align 8, !tbaa !11
  %30 = getelementptr inbounds nuw %struct._MRIStepInnerStepper, ptr %29, i32 0, i32 13
  %31 = load i64, ptr %12, align 8, !tbaa !198
  %32 = load ptr, ptr %8, align 8, !tbaa !11
  %33 = getelementptr inbounds nuw %struct._MRIStepInnerStepper, ptr %32, i32 0, i32 14
  %34 = call i32 @arkResizeVecArray(ptr noundef %20, ptr noundef %21, i32 noundef %24, ptr noundef %25, ptr noundef %27, i64 noundef %28, ptr noundef %30, i64 noundef %31, ptr noundef %33)
  store i32 %34, ptr %14, align 4, !tbaa !15
  %35 = load i32, ptr %14, align 4, !tbaa !15
  %36 = icmp ne i32 %35, 0
  br i1 %36, label %37, label %38

37:                                               ; preds = %19
  store i32 -20, ptr %7, align 4
  store i32 1, ptr %15, align 4
  br label %39

38:                                               ; preds = %19
  store i32 0, ptr %7, align 4
  store i32 1, ptr %15, align 4
  br label %39

39:                                               ; preds = %38, %37, %18
  call void @llvm.lifetime.end.p0(i64 4, ptr %14) #8
  %40 = load i32, ptr %7, align 4
  ret i32 %40
}