; Function Attrs: nounwind uwtable
define range(i32 -22, 1) i32 @mriStepInnerStepper_Resize(ptr noundef %0, ptr noundef %1, ptr noundef %2, i64 noundef %3, i64 noundef %4, ptr noundef %5) local_unnamed_addr #0 {
  %7 = icmp eq ptr %0, null
  br i1 %7, label %15, label %8

8:                                                ; preds = %6
  %9 = getelementptr inbounds nuw i8, ptr %0, i64 36
  %10 = load i32, ptr %9, align 4, !tbaa !196
  %11 = getelementptr inbounds nuw i8, ptr %0, i64 24
  %12 = getelementptr inbounds nuw i8, ptr %0, i64 96
  %13 = getelementptr inbounds nuw i8, ptr %0, i64 104
  %14 = tail call i32 @arkResizeVecArray(ptr noundef %1, ptr noundef %2, i32 noundef %10, ptr noundef %5, ptr noundef nonnull %11, i64 noundef %3, ptr noundef nonnull %12, i64 noundef %4, ptr noundef nonnull %13) #14
  %.not = icmp eq i32 %14, 0
  %. = select i1 %.not, i32 0, i32 -20
  br label %15

15:                                               ; preds = %8, %6
  %.0 = phi i32 [ -22, %6 ], [ %., %8 ]
  ret i32 %.0
}